; ModuleID = '39/920.c'
source_filename = "39/920.c"
target datalayout = "e-m:e-p270:32:32-p271:32:32-p272:64:64-i64:64-f80:128-n8:16:32:64-S128"
target triple = "x86_64-pc-linux-gnu"

@.str = private unnamed_addr constant [3 x i8] c"%d\00", align 1
@.str.1 = private unnamed_addr constant [18 x i8] c"%s %d %d %c %c %d\00", align 1
@.str.2 = private unnamed_addr constant [10 x i8] c"%s\0A%d\0A%d\0A\00", align 1

; Function Attrs: noinline nounwind uwtable
define dso_local i32 @yuanshi(i32 %0, i32 %1) #0 {
  %3 = alloca i32, align 4
  %4 = alloca i32, align 4
  %5 = alloca i32, align 4
  store i32 %0, i32* %4, align 4
  store i32 %1, i32* %5, align 4
  %6 = load i32, i32* %4, align 4
  %7 = icmp sgt i32 %6, 80
  br i1 %7, label %8, label %12

8:                                                ; preds = %2
  %9 = load i32, i32* %5, align 4
  %10 = icmp sge i32 %9, 1
  br i1 %10, label %11, label %12

11:                                               ; preds = %8
  store i32 8000, i32* %3, align 4
  br label %13

12:                                               ; preds = %8, %2
  store i32 0, i32* %3, align 4
  br label %13

13:                                               ; preds = %12, %11
  %14 = load i32, i32* %3, align 4
  ret i32 %14
}

; Function Attrs: noinline nounwind uwtable
define dso_local i32 @wusi(i32 %0, i32 %1) #0 {
  %3 = alloca i32, align 4
  %4 = alloca i32, align 4
  %5 = alloca i32, align 4
  store i32 %0, i32* %4, align 4
  store i32 %1, i32* %5, align 4
  %6 = load i32, i32* %4, align 4
  %7 = icmp sgt i32 %6, 85
  br i1 %7, label %8, label %12

8:                                                ; preds = %2
  %9 = load i32, i32* %5, align 4
  %10 = icmp sgt i32 %9, 80
  br i1 %10, label %11, label %12

11:                                               ; preds = %8
  store i32 4000, i32* %3, align 4
  br label %13

12:                                               ; preds = %8, %2
  store i32 0, i32* %3, align 4
  br label %13

13:                                               ; preds = %12, %11
  %14 = load i32, i32* %3, align 4
  ret i32 %14
}

; Function Attrs: noinline nounwind uwtable
define dso_local i32 @chengji(i32 %0) #0 {
  %2 = alloca i32, align 4
  %3 = alloca i32, align 4
  store i32 %0, i32* %3, align 4
  %4 = load i32, i32* %3, align 4
  %5 = icmp sgt i32 %4, 90
  br i1 %5, label %6, label %7

6:                                                ; preds = %1
  store i32 2000, i32* %2, align 4
  br label %8

7:                                                ; preds = %1
  store i32 0, i32* %2, align 4
  br label %8

8:                                                ; preds = %7, %6
  %9 = load i32, i32* %2, align 4
  ret i32 %9
}

; Function Attrs: noinline nounwind uwtable
define dso_local i32 @xibu(i32 %0, i8 signext %1) #0 {
  %3 = alloca i32, align 4
  %4 = alloca i32, align 4
  %5 = alloca i8, align 1
  store i32 %0, i32* %4, align 4
  store i8 %1, i8* %5, align 1
  %6 = load i32, i32* %4, align 4
  %7 = icmp sgt i32 %6, 85
  br i1 %7, label %8, label %13

8:                                                ; preds = %2
  %9 = load i8, i8* %5, align 1
  %10 = sext i8 %9 to i32
  %11 = icmp eq i32 %10, 89
  br i1 %11, label %12, label %13

12:                                               ; preds = %8
  store i32 1000, i32* %3, align 4
  br label %14

13:                                               ; preds = %8, %2
  store i32 0, i32* %3, align 4
  br label %14

14:                                               ; preds = %13, %12
  %15 = load i32, i32* %3, align 4
  ret i32 %15
}

; Function Attrs: noinline nounwind uwtable
define dso_local i32 @banji(i32 %0, i8 signext %1) #0 {
  %3 = alloca i32, align 4
  %4 = alloca i32, align 4
  %5 = alloca i8, align 1
  store i32 %0, i32* %4, align 4
  store i8 %1, i8* %5, align 1
  %6 = load i32, i32* %4, align 4
  %7 = icmp sgt i32 %6, 80
  br i1 %7, label %8, label %13

8:                                                ; preds = %2
  %9 = load i8, i8* %5, align 1
  %10 = sext i8 %9 to i32
  %11 = icmp eq i32 %10, 89
  br i1 %11, label %12, label %13

12:                                               ; preds = %8
  store i32 850, i32* %3, align 4
  br label %14

13:                                               ; preds = %8, %2
  store i32 0, i32* %3, align 4
  br label %14

14:                                               ; preds = %13, %12
  %15 = load i32, i32* %3, align 4
  ret i32 %15
}

; Function Attrs: noinline nounwind uwtable
define dso_local i32 @main() #0 {
  %1 = alloca i32, align 4
  %2 = alloca [120 x i32], align 16
  %3 = alloca [102 x i32], align 16
  %4 = alloca [120 x i32], align 16
  %5 = alloca i32, align 4
  %6 = alloca i32, align 4
  %7 = alloca [102 x i32], align 16
  %8 = alloca i32, align 4
  %9 = alloca i32, align 4
  %10 = alloca i32, align 4
  %11 = alloca [102 x [30 x i8]], align 16
  %12 = alloca [102 x i8], align 16
  %13 = alloca [100 x i8], align 16
  store i32 0, i32* %1, align 4
  store i32 0, i32* %8, align 4
  store i32 0, i32* %9, align 4
  %14 = call i32 (i8*, ...) @__isoc99_scanf(i8* getelementptr inbounds ([3 x i8], [3 x i8]* @.str, i64 0, i64 0), i32* %6)
  store i32 1, i32* %5, align 4
  br label %15

15:                                               ; preds = %107, %0
  %16 = load i32, i32* %5, align 4
  %17 = load i32, i32* %6, align 4
  %18 = icmp sle i32 %16, %17
  br i1 %18, label %19, label %110

19:                                               ; preds = %15
  %20 = load i32, i32* %5, align 4
  %21 = sext i32 %20 to i64
  %22 = getelementptr inbounds [102 x [30 x i8]], [102 x [30 x i8]]* %11, i64 0, i64 %21
  %23 = getelementptr inbounds [30 x i8], [30 x i8]* %22, i64 0, i64 0
  %24 = load i32, i32* %5, align 4
  %25 = sext i32 %24 to i64
  %26 = getelementptr inbounds [120 x i32], [120 x i32]* %2, i64 0, i64 %25
  %27 = load i32, i32* %5, align 4
  %28 = sext i32 %27 to i64
  %29 = getelementptr inbounds [102 x i32], [102 x i32]* %3, i64 0, i64 %28
  %30 = load i32, i32* %5, align 4
  %31 = sext i32 %30 to i64
  %32 = getelementptr inbounds [102 x i8], [102 x i8]* %12, i64 0, i64 %31
  %33 = load i32, i32* %5, align 4
  %34 = sext i32 %33 to i64
  %35 = getelementptr inbounds [100 x i8], [100 x i8]* %13, i64 0, i64 %34
  %36 = load i32, i32* %5, align 4
  %37 = sext i32 %36 to i64
  %38 = getelementptr inbounds [120 x i32], [120 x i32]* %4, i64 0, i64 %37
  %39 = call i32 (i8*, ...) @__isoc99_scanf(i8* getelementptr inbounds ([18 x i8], [18 x i8]* @.str.1, i64 0, i64 0), i8* %23, i32* %26, i32* %29, i8* %32, i8* %35, i32* %38)
  %40 = load i32, i32* %5, align 4
  %41 = sext i32 %40 to i64
  %42 = getelementptr inbounds [120 x i32], [120 x i32]* %2, i64 0, i64 %41
  %43 = load i32, i32* %42, align 4
  %44 = load i32, i32* %5, align 4
  %45 = sext i32 %44 to i64
  %46 = getelementptr inbounds [120 x i32], [120 x i32]* %4, i64 0, i64 %45
  %47 = load i32, i32* %46, align 4
  %48 = call i32 @yuanshi(i32 %43, i32 %47)
  %49 = load i32, i32* %5, align 4
  %50 = sext i32 %49 to i64
  %51 = getelementptr inbounds [120 x i32], [120 x i32]* %2, i64 0, i64 %50
  %52 = load i32, i32* %51, align 4
  %53 = load i32, i32* %5, align 4
  %54 = sext i32 %53 to i64
  %55 = getelementptr inbounds [102 x i32], [102 x i32]* %3, i64 0, i64 %54
  %56 = load i32, i32* %55, align 4
  %57 = call i32 @wusi(i32 %52, i32 %56)
  %58 = add nsw i32 %48, %57
  %59 = load i32, i32* %5, align 4
  %60 = sext i32 %59 to i64
  %61 = getelementptr inbounds [120 x i32], [120 x i32]* %2, i64 0, i64 %60
  %62 = load i32, i32* %61, align 4
  %63 = call i32 @chengji(i32 %62)
  %64 = add nsw i32 %58, %63
  %65 = load i32, i32* %5, align 4
  %66 = sext i32 %65 to i64
  %67 = getelementptr inbounds [120 x i32], [120 x i32]* %2, i64 0, i64 %66
  %68 = load i32, i32* %67, align 4
  %69 = load i32, i32* %5, align 4
  %70 = sext i32 %69 to i64
  %71 = getelementptr inbounds [100 x i8], [100 x i8]* %13, i64 0, i64 %70
  %72 = load i8, i8* %71, align 1
  %73 = call i32 @xibu(i32 %68, i8 signext %72)
  %74 = add nsw i32 %64, %73
  %75 = load i32, i32* %5, align 4
  %76 = sext i32 %75 to i64
  %77 = getelementptr inbounds [102 x i32], [102 x i32]* %3, i64 0, i64 %76
  %78 = load i32, i32* %77, align 4
  %79 = load i32, i32* %5, align 4
  %80 = sext i32 %79 to i64
  %81 = getelementptr inbounds [102 x i8], [102 x i8]* %12, i64 0, i64 %80
  %82 = load i8, i8* %81, align 1
  %83 = call i32 @banji(i32 %78, i8 signext %82)
  %84 = add nsw i32 %74, %83
  %85 = load i32, i32* %5, align 4
  %86 = sext i32 %85 to i64
  %87 = getelementptr inbounds [102 x i32], [102 x i32]* %7, i64 0, i64 %86
  store i32 %84, i32* %87, align 4
  %88 = load i32, i32* %5, align 4
  %89 = sext i32 %88 to i64
  %90 = getelementptr inbounds [102 x i32], [102 x i32]* %7, i64 0, i64 %89
  %91 = load i32, i32* %90, align 4
  %92 = load i32, i32* %8, align 4
  %93 = add nsw i32 %92, %91
  store i32 %93, i32* %8, align 4
  %94 = load i32, i32* %5, align 4
  %95 = sext i32 %94 to i64
  %96 = getelementptr inbounds [102 x i32], [102 x i32]* %7, i64 0, i64 %95
  %97 = load i32, i32* %96, align 4
  %98 = load i32, i32* %9, align 4
  %99 = icmp sgt i32 %97, %98
  br i1 %99, label %100, label %106

100:                                              ; preds = %19
  %101 = load i32, i32* %5, align 4
  %102 = sext i32 %101 to i64
  %103 = getelementptr inbounds [102 x i32], [102 x i32]* %7, i64 0, i64 %102
  %104 = load i32, i32* %103, align 4
  store i32 %104, i32* %9, align 4
  %105 = load i32, i32* %5, align 4
  store i32 %105, i32* %10, align 4
  br label %106

106:                                              ; preds = %100, %19
  br label %107

107:                                              ; preds = %106
  %108 = load i32, i32* %5, align 4
  %109 = add nsw i32 %108, 1
  store i32 %109, i32* %5, align 4
  br label %15

110:                                              ; preds = %15
  %111 = load i32, i32* %10, align 4
  %112 = sext i32 %111 to i64
  %113 = getelementptr inbounds [102 x [30 x i8]], [102 x [30 x i8]]* %11, i64 0, i64 %112
  %114 = getelementptr inbounds [30 x i8], [30 x i8]* %113, i64 0, i64 0
  %115 = load i32, i32* %10, align 4
  %116 = sext i32 %115 to i64
  %117 = getelementptr inbounds [102 x i32], [102 x i32]* %7, i64 0, i64 %116
  %118 = load i32, i32* %117, align 4
  %119 = load i32, i32* %8, align 4
  %120 = call i32 (i8*, ...) @printf(i8* getelementptr inbounds ([10 x i8], [10 x i8]* @.str.2, i64 0, i64 0), i8* %114, i32 %118, i32 %119)
  ret i32 0
}

declare dso_local i32 @__isoc99_scanf(i8*, ...) #1

declare dso_local i32 @printf(i8*, ...) #1


!llvm.module.flags = !{!0}
!llvm.ident = !{!1}

!0 = !{i32 1, !"wchar_size", i32 4}
!1 = !{!"clang version 10.0.0-4ubuntu1 "}
